target datalayout = "e-m:e-p270:32:32-p271:32:32-p272:64:64-i64:64-i128:128-f80:128-n8:16:32:64-S128"
target triple = "x86_64-pc-linux-gnu"

%struct.ui_st = type { ptr, ptr, ptr, %struct.crypto_ex_data_st, i32, ptr }
%struct.crypto_ex_data_st = type { ptr, ptr }
%struct.ui_method_st = type { ptr, ptr, ptr, ptr, ptr, ptr, ptr, ptr, ptr, %struct.crypto_ex_data_st }

@.str = private unnamed_addr constant [30 x i8] c"../openssl/crypto/ui/ui_lib.c\00", align 1
@__func__.UI_dup_user_data = private unnamed_addr constant [17 x i8] c"UI_dup_user_data\00", align 1

; Function Attrs: nounwind uwtable
define ptr @UI_add_user_data(ptr noundef %0, ptr noundef %1) #0 {
  %3 = alloca ptr, align 8
  %4 = alloca ptr, align 8
  %5 = alloca ptr, align 8
  store ptr %0, ptr %3, align 8, !tbaa !8
  store ptr %1, ptr %4, align 8, !tbaa !25
  call void @llvm.lifetime.start.p0(i64 8, ptr %5) #7
  %6 = load ptr, ptr %3, align 8, !tbaa !8
  %7 = getelementptr inbounds nuw %struct.ui_st, ptr %6, i32 0, i32 2
  %8 = load ptr, ptr %7, align 8, !tbaa !22
  store ptr %8, ptr %5, align 8, !tbaa !25
  %9 = load ptr, ptr %3, align 8, !tbaa !8
  %10 = getelementptr inbounds nuw %struct.ui_st, ptr %9, i32 0, i32 4
  %11 = load i32, ptr %10, align 8, !tbaa !18
  %12 = and i32 %11, 2
  %13 = icmp ne i32 %12, 0
  br i1 %13, label %14, label %22

14:                                               ; preds = %2
  %15 = load ptr, ptr %3, align 8, !tbaa !8
  %16 = getelementptr inbounds nuw %struct.ui_st, ptr %15, i32 0, i32 0
  %17 = load ptr, ptr %16, align 8, !tbaa !17
  %18 = getelementptr inbounds nuw %struct.ui_method_st, ptr %17, i32 0, i32 7
  %19 = load ptr, ptr %18, align 8, !tbaa !19
  %20 = load ptr, ptr %3, align 8, !tbaa !8
  %21 = load ptr, ptr %5, align 8, !tbaa !25
  call void %19(ptr noundef %20, ptr noundef %21)
  store ptr null, ptr %5, align 8, !tbaa !25
  br label %22

22:                                               ; preds = %14, %2
  %23 = load ptr, ptr %4, align 8, !tbaa !25
  %24 = load ptr, ptr %3, align 8, !tbaa !8
  %25 = getelementptr inbounds nuw %struct.ui_st, ptr %24, i32 0, i32 2
  store ptr %23, ptr %25, align 8, !tbaa !22
  %26 = load ptr, ptr %3, align 8, !tbaa !8
  %27 = getelementptr inbounds nuw %struct.ui_st, ptr %26, i32 0, i32 4
  %28 = load i32, ptr %27, align 8, !tbaa !18
  %29 = and i32 %28, -3
  store i32 %29, ptr %27, align 8, !tbaa !18
  %30 = load ptr, ptr %5, align 8, !tbaa !25
  call void @llvm.lifetime.end.p0(i64 8, ptr %5) #7
  ret ptr %30
}

; Function Attrs: nounwind uwtable
define i32 @UI_dup_user_data(ptr noundef %0, ptr noundef %1) #0 {
  %3 = alloca i32, align 4
  %4 = alloca ptr, align 8
  %5 = alloca ptr, align 8
  %6 = alloca ptr, align 8
  %7 = alloca i32, align 4
  store ptr %0, ptr %4, align 8, !tbaa !8
  store ptr %1, ptr %5, align 8, !tbaa !25
  call void @llvm.lifetime.start.p0(i64 8, ptr %6) #7
  store ptr null, ptr %6, align 8, !tbaa !25
  %8 = load ptr, ptr %4, align 8, !tbaa !8
  %9 = getelementptr inbounds nuw %struct.ui_st, ptr %8, i32 0, i32 0
  %10 = load ptr, ptr %9, align 8, !tbaa !17
  %11 = getelementptr inbounds nuw %struct.ui_method_st, ptr %10, i32 0, i32 6
  %12 = load ptr, ptr %11, align 8, !tbaa !39
  %13 = icmp eq ptr %12, null
  br i1 %13, label %21, label %14

14:                                               ; preds = %2
  %15 = load ptr, ptr %4, align 8, !tbaa !8
  %16 = getelementptr inbounds nuw %struct.ui_st, ptr %15, i32 0, i32 0
  %17 = load ptr, ptr %16, align 8, !tbaa !17
  %18 = getelementptr inbounds nuw %struct.ui_method_st, ptr %17, i32 0, i32 7
  %19 = load ptr, ptr %18, align 8, !tbaa !19
  %20 = icmp eq ptr %19, null
  br i1 %20, label %21, label %22

21:                                               ; preds = %14, %2
  call void @ERR_new()
  call void @ERR_set_debug(ptr noundef @.str, i32 noundef 390, ptr noundef @__func__.UI_dup_user_data)
  call void (i32, i32, ptr, ...) @ERR_set_error(i32 noundef 40, i32 noundef 112, ptr noundef null)
  store i32 -1, ptr %3, align 4
  store i32 1, ptr %7, align 4
  br label %42

22:                                               ; preds = %14
  %23 = load ptr, ptr %4, align 8, !tbaa !8
  %24 = getelementptr inbounds nuw %struct.ui_st, ptr %23, i32 0, i32 0
  %25 = load ptr, ptr %24, align 8, !tbaa !17
  %26 = getelementptr inbounds nuw %struct.ui_method_st, ptr %25, i32 0, i32 6
  %27 = load ptr, ptr %26, align 8, !tbaa !39
  %28 = load ptr, ptr %4, align 8, !tbaa !8
  %29 = load ptr, ptr %5, align 8, !tbaa !25
  %30 = call ptr %27(ptr noundef %28, ptr noundef %29)
  store ptr %30, ptr %6, align 8, !tbaa !25
  %31 = load ptr, ptr %6, align 8, !tbaa !25
  %32 = icmp eq ptr %31, null
  br i1 %32, label %33, label %34

33:                                               ; preds = %22
  call void @ERR_new()
  call void @ERR_set_debug(ptr noundef @.str, i32 noundef 396, ptr noundef @__func__.UI_dup_user_data)
  call void (i32, i32, ptr, ...) @ERR_set_error(i32 noundef 40, i32 noundef 524328, ptr noundef null)
  store i32 -1, ptr %3, align 4
  store i32 1, ptr %7, align 4
  br label %42

34:                                               ; preds = %22
  %35 = load ptr, ptr %4, align 8, !tbaa !8
  %36 = load ptr, ptr %6, align 8, !tbaa !25
  %37 = call ptr @UI_add_user_data(ptr noundef %35, ptr noundef %36)
  %38 = load ptr, ptr %4, align 8, !tbaa !8
  %39 = getelementptr inbounds nuw %struct.ui_st, ptr %38, i32 0, i32 4
  %40 = load i32, ptr %39, align 8, !tbaa !18
  %41 = or i32 %40, 2
  store i32 %41, ptr %39, align 8, !tbaa !18
  store i32 0, ptr %3, align 4
  store i32 1, ptr %7, align 4
  br label %42

42:                                               ; preds = %34, %33, %21
  call void @llvm.lifetime.end.p0(i64 8, ptr %6) #7
  %43 = load i32, ptr %3, align 4
  ret i32 %43
}