; Function Attrs: nounwind uwtable
define range(i32 -1, 1) i32 @UI_dup_user_data(ptr noundef %0, ptr noundef %1) local_unnamed_addr #0 {
  %3 = load ptr, ptr %0, align 8, !tbaa !14
  %4 = getelementptr inbounds nuw i8, ptr %3, i64 48
  %5 = load ptr, ptr %4, align 8, !tbaa !30
  %6 = icmp eq ptr %5, null
  br i1 %6, label %11, label %7

7:                                                ; preds = %2
  %8 = getelementptr inbounds nuw i8, ptr %3, i64 56
  %9 = load ptr, ptr %8, align 8, !tbaa !16
  %10 = icmp eq ptr %9, null
  br i1 %10, label %11, label %12

11:                                               ; preds = %7, %2
  tail call void @ERR_new() #8
  tail call void @ERR_set_debug(ptr noundef nonnull @.str, i32 noundef 390, ptr noundef nonnull @__func__.UI_dup_user_data) #8
  tail call void (i32, i32, ptr, ...) @ERR_set_error(i32 noundef 40, i32 noundef 112, ptr noundef null) #8
  br label %28

12:                                               ; preds = %7
  %13 = tail call ptr %5(ptr noundef nonnull %0, ptr noundef %1) #8
  %14 = icmp eq ptr %13, null
  br i1 %14, label %15, label %16

15:                                               ; preds = %12
  tail call void @ERR_new() #8
  tail call void @ERR_set_debug(ptr noundef nonnull @.str, i32 noundef 396, ptr noundef nonnull @__func__.UI_dup_user_data) #8
  tail call void (i32, i32, ptr, ...) @ERR_set_error(i32 noundef 40, i32 noundef 524328, ptr noundef null) #8
  br label %28

16:                                               ; preds = %12
  %17 = getelementptr inbounds nuw i8, ptr %0, i64 16
  %18 = getelementptr inbounds nuw i8, ptr %0, i64 40
  %19 = load i32, ptr %18, align 8, !tbaa !15
  %20 = and i32 %19, 2
  %.not.i = icmp eq i32 %20, 0
  br i1 %.not.i, label %UI_add_user_data.exit, label %21

21:                                               ; preds = %16
  %22 = load ptr, ptr %17, align 8, !tbaa !19
  %23 = load ptr, ptr %0, align 8, !tbaa !14
  %24 = getelementptr inbounds nuw i8, ptr %23, i64 56
  %25 = load ptr, ptr %24, align 8, !tbaa !16
  tail call void %25(ptr noundef nonnull %0, ptr noundef %22) #8
  %.pre.i = load i32, ptr %18, align 8, !tbaa !15
  br label %UI_add_user_data.exit

UI_add_user_data.exit:                            ; preds = %16, %21
  %26 = phi i32 [ %.pre.i, %21 ], [ %19, %16 ]
  store ptr %13, ptr %17, align 8, !tbaa !19
  %27 = or i32 %26, 2
  store i32 %27, ptr %18, align 8, !tbaa !15
  br label %28

28:                                               ; preds = %UI_add_user_data.exit, %15, %11
  %.0 = phi i32 [ -1, %11 ], [ -1, %15 ], [ 0, %UI_add_user_data.exit ]
  ret i32 %.0
}